   1              		.cpu cortex-m0
   2              		.fpu softvfp
   3              		.eabi_attribute 20, 1
   4              		.eabi_attribute 21, 1
   5              		.eabi_attribute 23, 3
   6              		.eabi_attribute 24, 1
   7              		.eabi_attribute 25, 1
   8              		.eabi_attribute 26, 1
   9              		.eabi_attribute 30, 6
  10              		.eabi_attribute 34, 0
  11              		.eabi_attribute 18, 4
  12              		.code	16
  13              		.file	"ST1.c"
  14              		.text
  15              	.Ltext0:
  16              		.cfi_sections	.debug_frame
  17              		.comm	AccReady,1,1
  18              		.comm	PrintReady,1,1
  19              		.section	.text.ST1_Init,"ax",%progbits
  20              		.align	2
  21              		.global	ST1_Init
  22              		.code	16
  23              		.thumb_func
  25              	ST1_Init:
  26              	.LFB0:
  27              		.file 1 "../Generated_Code/ST1.c"
   1:../Generated_Code/ST1.c **** /* ###################################################################
   2:../Generated_Code/ST1.c **** **     This component module is generated by Processor Expert. Do not modify it.
   3:../Generated_Code/ST1.c **** **     Filename    : ST1.c
   4:../Generated_Code/ST1.c **** **     Project     : ProcessorExpert
   5:../Generated_Code/ST1.c **** **     Processor   : MKL25Z128VLK4
   6:../Generated_Code/ST1.c **** **     Component   : Init_SysTick
   7:../Generated_Code/ST1.c **** **     Version     : Component 01.006, Driver 01.06, CPU db: 3.00.000
   8:../Generated_Code/ST1.c **** **     Compiler    : GNU C Compiler
   9:../Generated_Code/ST1.c **** **     Date/Time   : 2018-06-19, 12:44, # CodeGen: 78
  10:../Generated_Code/ST1.c **** **     Abstract    :
  11:../Generated_Code/ST1.c **** **          This file implements the SysTick (SysTick) module initialization
  12:../Generated_Code/ST1.c **** **          according to the Peripheral Initialization settings, and
  13:../Generated_Code/ST1.c **** **          defines interrupt service routines prototypes.
  14:../Generated_Code/ST1.c **** **     Settings    :
  15:../Generated_Code/ST1.c **** **          Component name                                 : ST1
  16:../Generated_Code/ST1.c **** **          Device                                         : SysTick
  17:../Generated_Code/ST1.c **** **          Settings                                       : 
  18:../Generated_Code/ST1.c **** **            Clock source                                 : Processor clock
  19:../Generated_Code/ST1.c **** **            Reload value                                 : 8000000
  20:../Generated_Code/ST1.c **** **            Counter period                               : 381.470 ms
  21:../Generated_Code/ST1.c **** **          Interrupts                                     : 
  22:../Generated_Code/ST1.c **** **            Interrupt                                    : INT_SysTick
  23:../Generated_Code/ST1.c **** **            Interrupt priority                           : 3
  24:../Generated_Code/ST1.c **** **            ISR Name                                     : Print
  25:../Generated_Code/ST1.c **** **            Timer interrupt                              : Enabled
  26:../Generated_Code/ST1.c **** **          Initialization                                 : 
  27:../Generated_Code/ST1.c **** **            Timer enable                                 : yes
  28:../Generated_Code/ST1.c **** **            Clear counter                                : yes
  29:../Generated_Code/ST1.c **** **            Call Init method                             : yes
  30:../Generated_Code/ST1.c **** **     Contents    :
  31:../Generated_Code/ST1.c **** **         Init - void ST1_Init(void);
  32:../Generated_Code/ST1.c **** **
  33:../Generated_Code/ST1.c **** **     Copyright : 1997 - 2014 Freescale Semiconductor, Inc. 
  34:../Generated_Code/ST1.c **** **     All Rights Reserved.
  35:../Generated_Code/ST1.c **** **     
  36:../Generated_Code/ST1.c **** **     Redistribution and use in source and binary forms, with or without modification,
  37:../Generated_Code/ST1.c **** **     are permitted provided that the following conditions are met:
  38:../Generated_Code/ST1.c **** **     
  39:../Generated_Code/ST1.c **** **     o Redistributions of source code must retain the above copyright notice, this list
  40:../Generated_Code/ST1.c **** **       of conditions and the following disclaimer.
  41:../Generated_Code/ST1.c **** **     
  42:../Generated_Code/ST1.c **** **     o Redistributions in binary form must reproduce the above copyright notice, this
  43:../Generated_Code/ST1.c **** **       list of conditions and the following disclaimer in the documentation and/or
  44:../Generated_Code/ST1.c **** **       other materials provided with the distribution.
  45:../Generated_Code/ST1.c **** **     
  46:../Generated_Code/ST1.c **** **     o Neither the name of Freescale Semiconductor, Inc. nor the names of its
  47:../Generated_Code/ST1.c **** **       contributors may be used to endorse or promote products derived from this
  48:../Generated_Code/ST1.c **** **       software without specific prior written permission.
  49:../Generated_Code/ST1.c **** **     
  50:../Generated_Code/ST1.c **** **     THIS SOFTWARE IS PROVIDED BY THE COPYRIGHT HOLDERS AND CONTRIBUTORS "AS IS" AND
  51:../Generated_Code/ST1.c **** **     ANY EXPRESS OR IMPLIED WARRANTIES, INCLUDING, BUT NOT LIMITED TO, THE IMPLIED
  52:../Generated_Code/ST1.c **** **     WARRANTIES OF MERCHANTABILITY AND FITNESS FOR A PARTICULAR PURPOSE ARE
  53:../Generated_Code/ST1.c **** **     DISCLAIMED. IN NO EVENT SHALL THE COPYRIGHT HOLDER OR CONTRIBUTORS BE LIABLE FOR
  54:../Generated_Code/ST1.c **** **     ANY DIRECT, INDIRECT, INCIDENTAL, SPECIAL, EXEMPLARY, OR CONSEQUENTIAL DAMAGES
  55:../Generated_Code/ST1.c **** **     (INCLUDING, BUT NOT LIMITED TO, PROCUREMENT OF SUBSTITUTE GOODS OR SERVICES;
  56:../Generated_Code/ST1.c **** **     LOSS OF USE, DATA, OR PROFITS; OR BUSINESS INTERRUPTION) HOWEVER CAUSED AND ON
  57:../Generated_Code/ST1.c **** **     ANY THEORY OF LIABILITY, WHETHER IN CONTRACT, STRICT LIABILITY, OR TORT
  58:../Generated_Code/ST1.c **** **     (INCLUDING NEGLIGENCE OR OTHERWISE) ARISING IN ANY WAY OUT OF THE USE OF THIS
  59:../Generated_Code/ST1.c **** **     SOFTWARE, EVEN IF ADVISED OF THE POSSIBILITY OF SUCH DAMAGE.
  60:../Generated_Code/ST1.c **** **     
  61:../Generated_Code/ST1.c **** **     http: www.freescale.com
  62:../Generated_Code/ST1.c **** **     mail: support@freescale.com
  63:../Generated_Code/ST1.c **** ** ###################################################################*/
  64:../Generated_Code/ST1.c **** /*!
  65:../Generated_Code/ST1.c **** ** @file ST1.c
  66:../Generated_Code/ST1.c **** ** @version 01.06
  67:../Generated_Code/ST1.c **** ** @brief
  68:../Generated_Code/ST1.c **** **          This file implements the SysTick (SysTick) module initialization
  69:../Generated_Code/ST1.c **** **          according to the Peripheral Initialization settings, and
  70:../Generated_Code/ST1.c **** **          defines interrupt service routines prototypes.
  71:../Generated_Code/ST1.c **** */         
  72:../Generated_Code/ST1.c **** /*!
  73:../Generated_Code/ST1.c **** **  @addtogroup ST1_module ST1 module documentation
  74:../Generated_Code/ST1.c **** **  @{
  75:../Generated_Code/ST1.c **** */         
  76:../Generated_Code/ST1.c **** 
  77:../Generated_Code/ST1.c **** /* MODULE ST1. */
  78:../Generated_Code/ST1.c **** 
  79:../Generated_Code/ST1.c **** #include "ST1.h"
  80:../Generated_Code/ST1.c ****   /* Including shared modules, which are used in the whole project */
  81:../Generated_Code/ST1.c **** #include "PE_Types.h"
  82:../Generated_Code/ST1.c **** #include "PE_Error.h"
  83:../Generated_Code/ST1.c **** #include "PE_Const.h"
  84:../Generated_Code/ST1.c **** #include "IO_Map.h"
  85:../Generated_Code/ST1.c **** #include "Cpu.h"
  86:../Generated_Code/ST1.c **** #include "global.h"
  87:../Generated_Code/ST1.c **** 
  88:../Generated_Code/ST1.c **** 
  89:../Generated_Code/ST1.c **** /*
  90:../Generated_Code/ST1.c **** ** ===================================================================
  91:../Generated_Code/ST1.c **** **     Method      :  ST1_Init (component Init_SysTick)
  92:../Generated_Code/ST1.c **** **     Description :
  93:../Generated_Code/ST1.c **** **         This method initializes registers of the SysTick module
  94:../Generated_Code/ST1.c **** **         according to the Peripheral Initialization settings.
  95:../Generated_Code/ST1.c **** **         Call this method in user code to initialize the module. By
  96:../Generated_Code/ST1.c **** **         default, the method is called by PE automatically; see "Call
  97:../Generated_Code/ST1.c **** **         Init method" property of the component for more details.
  98:../Generated_Code/ST1.c **** **     Parameters  : None
  99:../Generated_Code/ST1.c **** **     Returns     : Nothing
 100:../Generated_Code/ST1.c **** ** ===================================================================
 101:../Generated_Code/ST1.c **** */
 102:../Generated_Code/ST1.c **** void ST1_Init(void)
 103:../Generated_Code/ST1.c **** {
  28              		.loc 1 103 0
  29              		.cfi_startproc
  30 0000 80B5     		push	{r7, lr}
  31              	.LCFI0:
  32              		.cfi_def_cfa_offset 8
  33              		.cfi_offset 7, -8
  34              		.cfi_offset 14, -4
  35 0002 00AF     		add	r7, sp, #0
  36              	.LCFI1:
  37              		.cfi_def_cfa_register 7
 104:../Generated_Code/ST1.c ****   /* SYST_CSR: ??=0,??=0,??=0,??=0,??=0,??=0,??=0,??=0,??=0,??=0,??=0,??=0,??=0,??=0,??=0,COUNTFLAG
 105:../Generated_Code/ST1.c ****   SYST_CSR = 0x00U;
  38              		.loc 1 105 0
  39 0004 064B     		ldr	r3, .L2
  40 0006 0022     		mov	r2, #0
  41 0008 1A60     		str	r2, [r3]
 106:../Generated_Code/ST1.c ****   /* SYST_RVR: ??=0,??=0,??=0,??=0,??=0,??=0,??=0,??=0,RELOAD=0x007A1200 */
 107:../Generated_Code/ST1.c ****   SYST_RVR = SysTick_RVR_RELOAD(0x007A1200);
  42              		.loc 1 107 0
  43 000a 054B     		ldr	r3, .L2
  44 000c 054A     		ldr	r2, .L2+4
  45 000e 5A60     		str	r2, [r3, #4]
 108:../Generated_Code/ST1.c ****   /* SYST_CVR: ??=0,??=0,??=0,??=0,??=0,??=0,??=0,??=0,CURRENT=0 */
 109:../Generated_Code/ST1.c ****   SYST_CVR = SysTick_CVR_CURRENT(0x00);
  46              		.loc 1 109 0
  47 0010 034B     		ldr	r3, .L2
  48 0012 0022     		mov	r2, #0
  49 0014 9A60     		str	r2, [r3, #8]
 110:../Generated_Code/ST1.c ****   /* SYST_CSR: ??=0,??=0,??=0,??=0,??=0,??=0,??=0,??=0,??=0,??=0,??=0,??=0,??=0,??=0,??=0,COUNTFLAG
 111:../Generated_Code/ST1.c ****   SYST_CSR = SysTick_CSR_CLKSOURCE_MASK |
  50              		.loc 1 111 0
  51 0016 024B     		ldr	r3, .L2
  52 0018 0722     		mov	r2, #7
  53 001a 1A60     		str	r2, [r3]
 112:../Generated_Code/ST1.c ****              SysTick_CSR_TICKINT_MASK |
 113:../Generated_Code/ST1.c ****              SysTick_CSR_ENABLE_MASK;
 114:../Generated_Code/ST1.c **** }
  54              		.loc 1 114 0
  55 001c BD46     		mov	sp, r7
  56              		@ sp needed for prologue
  57 001e 80BD     		pop	{r7, pc}
  58              	.L3:
  59              		.align	2
  60              	.L2:
  61 0020 10E000E0 		.word	-536813552
  62 0024 00127A00 		.word	8000000
  63              		.cfi_endproc
  64              	.LFE0:
  66              		.section	.text.Print,"ax",%progbits
  67              		.align	2
  68              		.global	Print
  69              		.code	16
  70              		.thumb_func
  72              	Print:
  73              	.LFB1:
 115:../Generated_Code/ST1.c **** 
 116:../Generated_Code/ST1.c **** /*
 117:../Generated_Code/ST1.c **** ** ###################################################################
 118:../Generated_Code/ST1.c **** **
 119:../Generated_Code/ST1.c **** **  The interrupt service routine(s) must be implemented
 120:../Generated_Code/ST1.c **** **  by user in one of the following user modules.
 121:../Generated_Code/ST1.c **** **
 122:../Generated_Code/ST1.c **** **  If the "Generate ISR" option is enabled, Processor Expert generates
 123:../Generated_Code/ST1.c **** **  ISR templates in the CPU event module.
 124:../Generated_Code/ST1.c **** **
 125:../Generated_Code/ST1.c **** **  User modules:
 126:../Generated_Code/ST1.c **** **      ProcessorExpert.c
 127:../Generated_Code/ST1.c **** **      Events.c
 128:../Generated_Code/ST1.c **** **
 129:../Generated_Code/ST1.c **** ** ###################################################################*/
 130:../Generated_Code/ST1.c **** PE_ISR(Print)
 131:../Generated_Code/ST1.c **** {
  74              		.loc 1 131 0
  75              		.cfi_startproc
  76 0000 80B5     		push	{r7, lr}
  77              	.LCFI2:
  78              		.cfi_def_cfa_offset 8
  79              		.cfi_offset 7, -8
  80              		.cfi_offset 14, -4
  81 0002 00AF     		add	r7, sp, #0
  82              	.LCFI3:
  83              		.cfi_def_cfa_register 7
 132:../Generated_Code/ST1.c **** PrintReady = 1;
  84              		.loc 1 132 0
  85 0004 024B     		ldr	r3, .L5
  86 0006 0122     		mov	r2, #1
  87 0008 1A70     		strb	r2, [r3]
 133:../Generated_Code/ST1.c **** }
  88              		.loc 1 133 0
  89 000a BD46     		mov	sp, r7
  90              		@ sp needed for prologue
  91 000c 80BD     		pop	{r7, pc}
  92              	.L6:
  93 000e C046     		.align	2
  94              	.L5:
  95 0010 00000000 		.word	PrintReady
  96              		.cfi_endproc
  97              	.LFE1:
  99              		.text
 100              	.Letext0:
 101              		.file 2 "C:/Users/David/Desktop/DronePrototype/Project_Headers/MKL25Z4.h"
 102              		.file 3 "D:/Freescale/CodeWarrior11/MCU/ARM_GCC_Support/ewl/EWL_C/include/cstdint"
 103              		.file 4 "C:/Users/David/Desktop/DronePrototype/Project_Headers/global.h"